; Function Attrs: nounwind uwtable
define double @IDAWrmsNorm(ptr noundef readonly captures(none) %0, ptr noundef %1, ptr noundef %2, i32 noundef %3) local_unnamed_addr #0 {
  %.not = icmp eq i32 %3, 0
  br i1 %.not, label %9, label %5

5:                                                ; preds = %4
  %6 = getelementptr inbounds nuw i8, ptr %0, i64 432
  %7 = load ptr, ptr %6, align 8, !tbaa !96
  %8 = tail call double @N_VWrmsNormMask(ptr noundef %1, ptr noundef %2, ptr noundef %7) #13
  br label %11

9:                                                ; preds = %4
  %10 = tail call double @N_VWrmsNorm(ptr noundef %1, ptr noundef %2) #13
  br label %11

11:                                               ; preds = %9, %5
  %.0 = phi double [ %8, %5 ], [ %10, %9 ]
  ret double %.0
}